; ModuleID = '17/1007.c'
source_filename = "17/1007.c"
target datalayout = "e-m:e-p270:32:32-p271:32:32-p272:64:64-i64:64-f80:128-n8:16:32:64-S128"
target triple = "x86_64-pc-linux-gnu"

; Function Attrs: noinline nounwind uwtable
define dso_local void @match(i8* %0) #0 {
  %2 = alloca i8*, align 8
  %3 = alloca [101 x i8], align 16
  %4 = alloca i32, align 4
  %5 = alloca i32, align 4
  %6 = alloca i32, align 4
  %7 = alloca [101 x i32], align 16
  store i8* %0, i8** %2, align 8
  %8 = load i8*, i8** %2, align 8
  %9 = call i32 @puts(i8* %8)
  store i32 0, i32* %5, align 4
  %10 = load i8*, i8** %2, align 8
  %11 = call i64 @strlen(i8* %10) #3
  %12 = trunc i64 %11 to i32
  store i32 %12, i32* %4, align 4
  store i32 0, i32* %6, align 4
  br label %13

13:                                               ; preds = %21, %1
  %14 = load i32, i32* %6, align 4
  %15 = load i32, i32* %4, align 4
  %16 = icmp slt i32 %14, %15
  br i1 %16, label %17, label %24

17:                                               ; preds = %13
  %18 = load i32, i32* %6, align 4
  %19 = sext i32 %18 to i64
  %20 = getelementptr inbounds [101 x i8], [101 x i8]* %3, i64 0, i64 %19
  store i8 32, i8* %20, align 1
  br label %21

21:                                               ; preds = %17
  %22 = load i32, i32* %6, align 4
  %23 = add nsw i32 %22, 1
  store i32 %23, i32* %6, align 4
  br label %13

24:                                               ; preds = %13
  %25 = load i32, i32* %4, align 4
  %26 = sext i32 %25 to i64
  %27 = getelementptr inbounds [101 x i8], [101 x i8]* %3, i64 0, i64 %26
  store i8 0, i8* %27, align 1
  store i32 0, i32* %6, align 4
  br label %28

28:                                               ; preds = %67, %24
  %29 = load i32, i32* %6, align 4
  %30 = load i32, i32* %4, align 4
  %31 = icmp slt i32 %29, %30
  br i1 %31, label %32, label %70

32:                                               ; preds = %28
  %33 = load i8*, i8** %2, align 8
  %34 = load i32, i32* %6, align 4
  %35 = sext i32 %34 to i64
  %36 = getelementptr inbounds i8, i8* %33, i64 %35
  %37 = load i8, i8* %36, align 1
  %38 = sext i8 %37 to i32
  %39 = icmp eq i32 %38, 40
  br i1 %39, label %40, label %46

40:                                               ; preds = %32
  %41 = load i32, i32* %6, align 4
  %42 = load i32, i32* %5, align 4
  %43 = add nsw i32 %42, 1
  store i32 %43, i32* %5, align 4
  %44 = sext i32 %42 to i64
  %45 = getelementptr inbounds [101 x i32], [101 x i32]* %7, i64 0, i64 %44
  store i32 %41, i32* %45, align 4
  br label %66

46:                                               ; preds = %32
  %47 = load i8*, i8** %2, align 8
  %48 = load i32, i32* %6, align 4
  %49 = sext i32 %48 to i64
  %50 = getelementptr inbounds i8, i8* %47, i64 %49
  %51 = load i8, i8* %50, align 1
  %52 = sext i8 %51 to i32
  %53 = icmp eq i32 %52, 41
  br i1 %53, label %54, label %65

54:                                               ; preds = %46
  %55 = load i32, i32* %5, align 4
  %56 = icmp eq i32 %55, 0
  br i1 %56, label %57, label %61

57:                                               ; preds = %54
  %58 = load i32, i32* %6, align 4
  %59 = sext i32 %58 to i64
  %60 = getelementptr inbounds [101 x i8], [101 x i8]* %3, i64 0, i64 %59
  store i8 63, i8* %60, align 1
  br label %64

61:                                               ; preds = %54
  %62 = load i32, i32* %5, align 4
  %63 = add nsw i32 %62, -1
  store i32 %63, i32* %5, align 4
  br label %64

64:                                               ; preds = %61, %57
  br label %65

65:                                               ; preds = %64, %46
  br label %66

66:                                               ; preds = %65, %40
  br label %67

67:                                               ; preds = %66
  %68 = load i32, i32* %6, align 4
  %69 = add nsw i32 %68, 1
  store i32 %69, i32* %6, align 4
  br label %28

70:                                               ; preds = %28
  store i32 0, i32* %6, align 4
  br label %71

71:                                               ; preds = %82, %70
  %72 = load i32, i32* %6, align 4
  %73 = load i32, i32* %5, align 4
  %74 = icmp slt i32 %72, %73
  br i1 %74, label %75, label %85

75:                                               ; preds = %71
  %76 = load i32, i32* %6, align 4
  %77 = sext i32 %76 to i64
  %78 = getelementptr inbounds [101 x i32], [101 x i32]* %7, i64 0, i64 %77
  %79 = load i32, i32* %78, align 4
  %80 = sext i32 %79 to i64
  %81 = getelementptr inbounds [101 x i8], [101 x i8]* %3, i64 0, i64 %80
  store i8 36, i8* %81, align 1
  br label %82

82:                                               ; preds = %75
  %83 = load i32, i32* %6, align 4
  %84 = add nsw i32 %83, 1
  store i32 %84, i32* %6, align 4
  br label %71

85:                                               ; preds = %71
  %86 = getelementptr inbounds [101 x i8], [101 x i8]* %3, i64 0, i64 0
  %87 = call i32 @puts(i8* %86)
  ret void
}

declare dso_local i32 @puts(i8*) #1

; Function Attrs: nounwind readonly
declare dso_local i64 @strlen(i8*) #2

; Function Attrs: noinline nounwind uwtable
define dso_local i32 @main() #0 {
  %1 = alloca i32, align 4
  %2 = alloca [101 x i8], align 16
  store i32 0, i32* %1, align 4
  br label %3

3:                                                ; preds = %7, %0
  %4 = getelementptr inbounds [101 x i8], [101 x i8]* %2, i64 0, i64 0
  %5 = call i32 (i8*, ...) bitcast (i32 (...)* @gets to i32 (i8*, ...)*)(i8* %4)
  %6 = icmp ne i32 %5, 0
  br i1 %6, label %7, label %9

7:                                                ; preds = %3
  %8 = getelementptr inbounds [101 x i8], [101 x i8]* %2, i64 0, i64 0
  call void @match(i8* %8)
  br label %3

9:                                                ; preds = %3
  %10 = load i32, i32* %1, align 4
  ret i32 %10
}

declare dso_local i32 @gets(...) #1


!llvm.module.flags = !{!0}
!llvm.ident = !{!1}

!0 = !{i32 1, !"wchar_size", i32 4}
!1 = !{!"clang version 10.0.0-4ubuntu1 "}
